; Function Attrs: nounwind uwtable
define dso_local range(i64 0, 2) i64 @has_column_privilege_id_name_attnum(ptr noundef captures(none) %0) local_unnamed_addr #0 {
  %2 = alloca i8, align 1
  %3 = getelementptr inbounds nuw i8, ptr %0, i64 32
  %4 = load i64, ptr %3, align 8
  %5 = trunc i64 %4 to i32
  %6 = getelementptr inbounds nuw i8, ptr %0, i64 48
  %7 = load i64, ptr %6, align 8
  %8 = inttoptr i64 %7 to ptr
  %9 = tail call ptr @pg_detoast_datum_packed(ptr noundef %8) #14
  %10 = getelementptr inbounds nuw i8, ptr %0, i64 64
  %11 = load i64, ptr %10, align 8
  %12 = trunc i64 %11 to i16
  %13 = getelementptr inbounds nuw i8, ptr %0, i64 80
  %14 = load i64, ptr %13, align 8
  %15 = inttoptr i64 %14 to ptr
  %16 = tail call ptr @pg_detoast_datum_packed(ptr noundef %15) #14
  %17 = tail call ptr @textToQualifiedNameList(ptr noundef %9) #14
  %18 = tail call ptr @makeRangeVarFromNameList(ptr noundef %17) #14
  %19 = tail call i32 @RangeVarGetRelidExtended(ptr noundef %18, i32 noundef 0, i32 noundef 0, ptr noundef null, ptr noundef null) #14
  %20 = tail call fastcc i64 @convert_any_priv_string(ptr noundef %16, ptr noundef nonnull @convert_column_priv_string.column_priv_map)
  call void @llvm.lifetime.start.p0(i64 1, ptr nonnull %2) #14
  store i8 0, ptr %2, align 1
  %21 = icmp eq i16 %12, 0
  br i1 %21, label %column_privilege_check.exit.thread, label %22

22:                                               ; preds = %1
  %23 = call i32 @pg_attribute_aclcheck_ext(i32 noundef %19, i16 noundef signext %12, i32 noundef %5, i64 noundef %20, ptr noundef nonnull %2) #14
  %24 = icmp eq i32 %23, 0
  br i1 %24, label %column_privilege_check.exit.thread16, label %25

25:                                               ; preds = %22
  %26 = load i8, ptr %2, align 1, !range !27, !noundef !28
  %27 = trunc nuw i8 %26 to i1
  br i1 %27, label %column_privilege_check.exit.thread, label %28

28:                                               ; preds = %25
  %29 = call i32 @pg_class_aclcheck_ext(i32 noundef %19, i32 noundef %5, i64 noundef %20, ptr noundef nonnull %2) #14
  %30 = icmp eq i32 %29, 0
  br i1 %30, label %column_privilege_check.exit.thread16, label %column_privilege_check.exit

column_privilege_check.exit.thread:               ; preds = %1, %25
  call void @llvm.lifetime.end.p0(i64 1, ptr nonnull %2) #14
  br label %32

column_privilege_check.exit.thread16:             ; preds = %22, %28
  call void @llvm.lifetime.end.p0(i64 1, ptr nonnull %2) #14
  br label %34

column_privilege_check.exit:                      ; preds = %28
  %31 = load i8, ptr %2, align 1, !range !27, !noundef !28
  call void @llvm.lifetime.end.p0(i64 1, ptr nonnull %2) #14
  %.not = icmp eq i8 %31, 0
  br i1 %.not, label %34, label %32

32:                                               ; preds = %column_privilege_check.exit.thread, %column_privilege_check.exit
  %33 = getelementptr inbounds nuw i8, ptr %0, i64 28
  store i8 1, ptr %33, align 4
  br label %34

34:                                               ; preds = %column_privilege_check.exit, %column_privilege_check.exit.thread16, %32
  %.0 = phi i64 [ 0, %32 ], [ 1, %column_privilege_check.exit.thread16 ], [ 0, %column_privilege_check.exit ]
  ret i64 %.0
}